target datalayout = "e-m:e-p270:32:32-p271:32:32-p272:64:64-i64:64-i128:128-f80:128-n8:16:32:64-S128"
target triple = "x86_64-pc-linux-gnu"

%struct.tsi_fake_frame = type { ptr, i64, i64, i64, i32 }
%struct.tsi_fake_frame_protector = type { %struct.tsi_frame_protector, %struct.tsi_fake_frame, %struct.tsi_fake_frame, i64 }
%struct.tsi_frame_protector = type { ptr }

; Function Attrs: mustprogress uwtable
define linkonce_odr noundef ptr @_ZN9grpc_core6ZallocI24tsi_fake_frame_protectorEEPT_v() #4 comdat {
  %1 = call ptr @gpr_zalloc(i64 noundef 96)
  ret ptr %1
}

; Function Attrs: mustprogress uwtable
define noundef ptr @_Z31tsi_create_fake_frame_protectorPm(ptr noundef %0) #4 {
  %2 = alloca ptr, align 8
  %3 = alloca ptr, align 8
  store ptr %0, ptr %2, align 8, !tbaa !43
  call void @llvm.lifetime.start.p0(i64 8, ptr %3) #3
  %4 = call noundef ptr @_ZN9grpc_core6ZallocI24tsi_fake_frame_protectorEEPT_v()
  store ptr %4, ptr %3, align 8, !tbaa !45
  %5 = load ptr, ptr %2, align 8, !tbaa !43
  %6 = icmp eq ptr %5, null
  br i1 %6, label %7, label %8

7:                                                ; preds = %1
  br label %11

8:                                                ; preds = %1
  %9 = load ptr, ptr %2, align 8, !tbaa !43
  %10 = load i64, ptr %9, align 8, !tbaa !14
  br label %11

11:                                               ; preds = %8, %7
  %12 = phi i64 [ 16384, %7 ], [ %10, %8 ]
  %13 = load ptr, ptr %3, align 8, !tbaa !45
  %14 = getelementptr inbounds nuw %struct.tsi_fake_frame_protector, ptr %13, i32 0, i32 3
  store i64 %12, ptr %14, align 8, !tbaa !47
  %15 = load ptr, ptr %3, align 8, !tbaa !45
  %16 = getelementptr inbounds nuw %struct.tsi_fake_frame_protector, ptr %15, i32 0, i32 0
  %17 = getelementptr inbounds nuw %struct.tsi_frame_protector, ptr %16, i32 0, i32 0
  store ptr @_ZL22frame_protector_vtable, ptr %17, align 8, !tbaa !51
  %18 = load ptr, ptr %3, align 8, !tbaa !45
  %19 = getelementptr inbounds nuw %struct.tsi_fake_frame_protector, ptr %18, i32 0, i32 0
  call void @llvm.lifetime.end.p0(i64 8, ptr %3) #3
  ret ptr %19
}

; Function Attrs: mustprogress uwtable
define internal noundef i32 @_ZL45fake_handshaker_result_create_frame_protectorPK21tsi_handshaker_resultPmPP19tsi_frame_protector(ptr noundef %0, ptr noundef %1, ptr noundef %2) #4 {
  %4 = alloca ptr, align 8
  %5 = alloca ptr, align 8
  %6 = alloca ptr, align 8
  store ptr %0, ptr %4, align 8, !tbaa !102
  store ptr %1, ptr %5, align 8, !tbaa !43
  store ptr %2, ptr %6, align 8, !tbaa !174
  %7 = load ptr, ptr %5, align 8, !tbaa !43
  %8 = call noundef ptr @_Z31tsi_create_fake_frame_protectorPm(ptr noundef %7)
  %9 = load ptr, ptr %6, align 8, !tbaa !174
  store ptr %8, ptr %9, align 8, !tbaa !176
  ret i32 0
}