; Function Attrs: mustprogress uwtable
define internal noundef i32 @_ZL45fake_handshaker_result_create_frame_protectorPK21tsi_handshaker_resultPmPP19tsi_frame_protector(ptr readnone captures(none) %0, ptr noundef readonly %1, ptr noundef writeonly captures(none) initializes((0, 8)) %2) #3 {
  %4 = tail call noundef ptr @gpr_zalloc(i64 noundef 96)
  %5 = icmp eq ptr %1, null
  br i1 %5, label %_Z31tsi_create_fake_frame_protectorPm.exit, label %6

6:                                                ; preds = %3
  %7 = load i64, ptr %1, align 8, !tbaa !40
  br label %_Z31tsi_create_fake_frame_protectorPm.exit

_Z31tsi_create_fake_frame_protectorPm.exit:       ; preds = %3, %6
  %8 = phi i64 [ %7, %6 ], [ 16384, %3 ]
  %9 = getelementptr inbounds nuw i8, ptr %4, i64 88
  store i64 %8, ptr %9, align 8, !tbaa !41
  store ptr @_ZL22frame_protector_vtable, ptr %4, align 8, !tbaa !45
  store ptr %4, ptr %2, align 8, !tbaa !83
  ret i32 0
}